target datalayout = "e-m:e-p270:32:32-p271:32:32-p272:64:64-i64:64-i128:128-f80:128-n8:16:32:64-S128"
target triple = "x86_64-pc-linux-gnu"

%struct.pointf_s = type { double, double }
%struct.boxf = type { %struct.pointf_s, %struct.pointf_s }
%struct.textlabel_t = type { ptr, ptr, ptr, i32, double, %struct.pointf_s, %struct.pointf_s, %struct.pointf_s, %union.anon.0, i8, i8, i8 }
%union.anon.0 = type { %struct.anon }
%struct.anon = type { ptr, i64 }
%struct.label_params_t = type { %struct.boxf, i8 }
%struct.object_t = type { %struct.pointf_s, %struct.pointf_s, ptr }
%struct.xlabel_t = type { %struct.pointf_s, %struct.pointf_s, ptr, i8 }

@stderr = external global ptr, align 8
@Verbose = external global i8, align 1
@.str.13 = private unnamed_addr constant [62 x i8] c"%zu objs %zu xlabels force=%d bb=(%.02f,%.02f) (%.02f,%.02f)\0A\00", align 1
@.str.14 = private unnamed_addr constant [9 x i8] c"objects\0A\00", align 1
@.str.15 = private unnamed_addr constant [44 x i8] c" [%zu] (%.02f,%.02f) (%.02f,%.02f) %p \22%s\22\0A\00", align 1
@.str.16 = private unnamed_addr constant [1 x i8] zeroinitializer, align 1
@.str.17 = private unnamed_addr constant [9 x i8] c"xlabels\0A\00", align 1
@.str.18 = private unnamed_addr constant [49 x i8] c" [%zu] %p set %d (%.02f,%.02f) (%.02f,%.02f) %s\0A\00", align 1

; Function Attrs: nounwind uwtable
define internal void @printData(ptr noundef %0, i64 noundef %1, ptr noundef %2, i64 noundef %3, ptr noundef %4) #0 {
  %6 = alloca ptr, align 8
  %7 = alloca i64, align 8
  %8 = alloca ptr, align 8
  %9 = alloca i64, align 8
  %10 = alloca ptr, align 8
  %11 = alloca ptr, align 8
  %12 = alloca i32, align 4
  %13 = alloca i64, align 8
  %14 = alloca i64, align 8
  store ptr %0, ptr %6, align 8, !tbaa !86
  store i64 %1, ptr %7, align 8, !tbaa !62
  store ptr %2, ptr %8, align 8, !tbaa !86
  store i64 %3, ptr %9, align 8, !tbaa !62
  store ptr %4, ptr %10, align 8, !tbaa !86
  call void @llvm.lifetime.start.p0(i64 8, ptr %11) #12
  %15 = load ptr, ptr @stderr, align 8, !tbaa !58
  %16 = load i64, ptr %7, align 8, !tbaa !62
  %17 = load i64, ptr %9, align 8, !tbaa !62
  %18 = load ptr, ptr %10, align 8, !tbaa !86
  %19 = getelementptr inbounds nuw %struct.label_params_t, ptr %18, i32 0, i32 1
  %20 = load i8, ptr %19, align 8, !tbaa !96
  %21 = zext i8 %20 to i32
  %22 = load ptr, ptr %10, align 8, !tbaa !86
  %23 = getelementptr inbounds nuw %struct.label_params_t, ptr %22, i32 0, i32 0
  %24 = getelementptr inbounds nuw %struct.boxf, ptr %23, i32 0, i32 0
  %25 = getelementptr inbounds nuw %struct.pointf_s, ptr %24, i32 0, i32 0
  %26 = load double, ptr %25, align 8, !tbaa !131
  %27 = load ptr, ptr %10, align 8, !tbaa !86
  %28 = getelementptr inbounds nuw %struct.label_params_t, ptr %27, i32 0, i32 0
  %29 = getelementptr inbounds nuw %struct.boxf, ptr %28, i32 0, i32 0
  %30 = getelementptr inbounds nuw %struct.pointf_s, ptr %29, i32 0, i32 1
  %31 = load double, ptr %30, align 8, !tbaa !132
  %32 = load ptr, ptr %10, align 8, !tbaa !86
  %33 = getelementptr inbounds nuw %struct.label_params_t, ptr %32, i32 0, i32 0
  %34 = getelementptr inbounds nuw %struct.boxf, ptr %33, i32 0, i32 1
  %35 = getelementptr inbounds nuw %struct.pointf_s, ptr %34, i32 0, i32 0
  %36 = load double, ptr %35, align 8, !tbaa !133
  %37 = load ptr, ptr %10, align 8, !tbaa !86
  %38 = getelementptr inbounds nuw %struct.label_params_t, ptr %37, i32 0, i32 0
  %39 = getelementptr inbounds nuw %struct.boxf, ptr %38, i32 0, i32 1
  %40 = getelementptr inbounds nuw %struct.pointf_s, ptr %39, i32 0, i32 1
  %41 = load double, ptr %40, align 8, !tbaa !134
  %42 = call i32 (ptr, ptr, ...) @fprintf(ptr noundef %15, ptr noundef @.str.13, i64 noundef %16, i64 noundef %17, i32 noundef %21, double noundef %26, double noundef %31, double noundef %36, double noundef %41) #12
  %43 = load i8, ptr @Verbose, align 1, !tbaa !98
  %44 = zext i8 %43 to i32
  %45 = icmp slt i32 %44, 2
  br i1 %45, label %46, label %47

46:                                               ; preds = %5
  store i32 1, ptr %12, align 4
  br label %141

47:                                               ; preds = %5
  %48 = load ptr, ptr @stderr, align 8, !tbaa !58
  %49 = call i32 (ptr, ptr, ...) @fprintf(ptr noundef %48, ptr noundef @.str.14) #12
  call void @llvm.lifetime.start.p0(i64 8, ptr %13) #12
  store i64 0, ptr %13, align 8, !tbaa !62
  br label %50

50:                                               ; preds = %94, %47
  %51 = load i64, ptr %13, align 8, !tbaa !62
  %52 = load i64, ptr %7, align 8, !tbaa !62
  %53 = icmp ult i64 %51, %52
  br i1 %53, label %55, label %54

54:                                               ; preds = %50
  store i32 2, ptr %12, align 4
  call void @llvm.lifetime.end.p0(i64 8, ptr %13) #12
  br label %97

55:                                               ; preds = %50
  %56 = load ptr, ptr %6, align 8, !tbaa !86
  %57 = getelementptr inbounds nuw %struct.object_t, ptr %56, i32 0, i32 2
  %58 = load ptr, ptr %57, align 8, !tbaa !116
  store ptr %58, ptr %11, align 8, !tbaa !86
  %59 = load ptr, ptr @stderr, align 8, !tbaa !58
  %60 = load i64, ptr %13, align 8, !tbaa !62
  %61 = load ptr, ptr %6, align 8, !tbaa !86
  %62 = getelementptr inbounds nuw %struct.object_t, ptr %61, i32 0, i32 0
  %63 = getelementptr inbounds nuw %struct.pointf_s, ptr %62, i32 0, i32 0
  %64 = load double, ptr %63, align 8, !tbaa !112
  %65 = load ptr, ptr %6, align 8, !tbaa !86
  %66 = getelementptr inbounds nuw %struct.object_t, ptr %65, i32 0, i32 0
  %67 = getelementptr inbounds nuw %struct.pointf_s, ptr %66, i32 0, i32 1
  %68 = load double, ptr %67, align 8, !tbaa !113
  %69 = load ptr, ptr %6, align 8, !tbaa !86
  %70 = getelementptr inbounds nuw %struct.object_t, ptr %69, i32 0, i32 1
  %71 = getelementptr inbounds nuw %struct.pointf_s, ptr %70, i32 0, i32 0
  %72 = load double, ptr %71, align 8, !tbaa !108
  %73 = load ptr, ptr %6, align 8, !tbaa !86
  %74 = getelementptr inbounds nuw %struct.object_t, ptr %73, i32 0, i32 1
  %75 = getelementptr inbounds nuw %struct.pointf_s, ptr %74, i32 0, i32 1
  %76 = load double, ptr %75, align 8, !tbaa !111
  %77 = load ptr, ptr %6, align 8, !tbaa !86
  %78 = getelementptr inbounds nuw %struct.object_t, ptr %77, i32 0, i32 2
  %79 = load ptr, ptr %78, align 8, !tbaa !116
  %80 = load ptr, ptr %11, align 8, !tbaa !86
  %81 = icmp ne ptr %80, null
  br i1 %81, label %82, label %88

82:                                               ; preds = %55
  %83 = load ptr, ptr %11, align 8, !tbaa !86
  %84 = getelementptr inbounds nuw %struct.xlabel_t, ptr %83, i32 0, i32 2
  %85 = load ptr, ptr %84, align 8, !tbaa !101
  %86 = getelementptr inbounds nuw %struct.textlabel_t, ptr %85, i32 0, i32 0
  %87 = load ptr, ptr %86, align 8, !tbaa !88
  br label %89

88:                                               ; preds = %55
  br label %89

89:                                               ; preds = %88, %82
  %90 = phi ptr [ %87, %82 ], [ @.str.16, %88 ]
  %91 = call i32 (ptr, ptr, ...) @fprintf(ptr noundef %59, ptr noundef @.str.15, i64 noundef %60, double noundef %64, double noundef %68, double noundef %72, double noundef %76, ptr noundef %79, ptr noundef %90) #12
  %92 = load ptr, ptr %6, align 8, !tbaa !86
  %93 = getelementptr inbounds nuw %struct.object_t, ptr %92, i32 1
  store ptr %93, ptr %6, align 8, !tbaa !86
  br label %94

94:                                               ; preds = %89
  %95 = load i64, ptr %13, align 8, !tbaa !62
  %96 = add i64 %95, 1
  store i64 %96, ptr %13, align 8, !tbaa !62
  br label %50, !llvm.loop !135

97:                                               ; preds = %54
  %98 = load ptr, ptr @stderr, align 8, !tbaa !58
  %99 = call i32 (ptr, ptr, ...) @fprintf(ptr noundef %98, ptr noundef @.str.17) #12
  call void @llvm.lifetime.start.p0(i64 8, ptr %14) #12
  store i64 0, ptr %14, align 8, !tbaa !62
  br label %100

100:                                              ; preds = %137, %97
  %101 = load i64, ptr %14, align 8, !tbaa !62
  %102 = load i64, ptr %9, align 8, !tbaa !62
  %103 = icmp ult i64 %101, %102
  br i1 %103, label %105, label %104

104:                                              ; preds = %100
  store i32 5, ptr %12, align 4
  call void @llvm.lifetime.end.p0(i64 8, ptr %14) #12
  br label %140

105:                                              ; preds = %100
  %106 = load ptr, ptr @stderr, align 8, !tbaa !58
  %107 = load i64, ptr %14, align 8, !tbaa !62
  %108 = load ptr, ptr %8, align 8, !tbaa !86
  %109 = load ptr, ptr %8, align 8, !tbaa !86
  %110 = getelementptr inbounds nuw %struct.xlabel_t, ptr %109, i32 0, i32 3
  %111 = load i8, ptr %110, align 8, !tbaa !99
  %112 = zext i8 %111 to i32
  %113 = load ptr, ptr %8, align 8, !tbaa !86
  %114 = getelementptr inbounds nuw %struct.xlabel_t, ptr %113, i32 0, i32 1
  %115 = getelementptr inbounds nuw %struct.pointf_s, ptr %114, i32 0, i32 0
  %116 = load double, ptr %115, align 8, !tbaa !136
  %117 = load ptr, ptr %8, align 8, !tbaa !86
  %118 = getelementptr inbounds nuw %struct.xlabel_t, ptr %117, i32 0, i32 1
  %119 = getelementptr inbounds nuw %struct.pointf_s, ptr %118, i32 0, i32 1
  %120 = load double, ptr %119, align 8, !tbaa !137
  %121 = load ptr, ptr %8, align 8, !tbaa !86
  %122 = getelementptr inbounds nuw %struct.xlabel_t, ptr %121, i32 0, i32 0
  %123 = getelementptr inbounds nuw %struct.pointf_s, ptr %122, i32 0, i32 0
  %124 = load double, ptr %123, align 8, !tbaa !117
  %125 = load ptr, ptr %8, align 8, !tbaa !86
  %126 = getelementptr inbounds nuw %struct.xlabel_t, ptr %125, i32 0, i32 0
  %127 = getelementptr inbounds nuw %struct.pointf_s, ptr %126, i32 0, i32 1
  %128 = load double, ptr %127, align 8, !tbaa !118
  %129 = load ptr, ptr %8, align 8, !tbaa !86
  %130 = getelementptr inbounds nuw %struct.xlabel_t, ptr %129, i32 0, i32 2
  %131 = load ptr, ptr %130, align 8, !tbaa !101
  %132 = getelementptr inbounds nuw %struct.textlabel_t, ptr %131, i32 0, i32 0
  %133 = load ptr, ptr %132, align 8, !tbaa !88
  %134 = call i32 (ptr, ptr, ...) @fprintf(ptr noundef %106, ptr noundef @.str.18, i64 noundef %107, ptr noundef %108, i32 noundef %112, double noundef %116, double noundef %120, double noundef %124, double noundef %128, ptr noundef %133) #12
  %135 = load ptr, ptr %8, align 8, !tbaa !86
  %136 = getelementptr inbounds nuw %struct.xlabel_t, ptr %135, i32 1
  store ptr %136, ptr %8, align 8, !tbaa !86
  br label %137

137:                                              ; preds = %105
  %138 = load i64, ptr %14, align 8, !tbaa !62
  %139 = add i64 %138, 1
  store i64 %139, ptr %14, align 8, !tbaa !62
  br label %100, !llvm.loop !138

140:                                              ; preds = %104
  store i32 0, ptr %12, align 4
  br label %141

141:                                              ; preds = %140, %46
  call void @llvm.lifetime.end.p0(i64 8, ptr %11) #12
  %142 = load i32, ptr %12, align 4
  switch i32 %142, label %144 [
    i32 0, label %143
    i32 1, label %143
  ]

143:                                              ; preds = %141, %141
  ret void

144:                                              ; preds = %141
  unreachable
}