; Function Attrs: cold nofree nounwind uwtable
define internal fastcc void @printData(ptr noundef readonly captures(none) %0, i64 noundef %1, ptr noundef %2, i64 noundef range(i64 1, 0) %3, ptr noundef nonnull readonly captures(none) %4) unnamed_addr #7 {
  %6 = load ptr, ptr @stderr, align 8, !tbaa !68
  %7 = getelementptr inbounds nuw i8, ptr %4, i64 32
  %8 = load i8, ptr %7, align 8, !tbaa !118
  %9 = zext i8 %8 to i32
  %10 = load double, ptr %4, align 8, !tbaa !152
  %11 = getelementptr inbounds nuw i8, ptr %4, i64 8
  %12 = load double, ptr %11, align 8, !tbaa !153
  %13 = getelementptr inbounds nuw i8, ptr %4, i64 16
  %14 = load double, ptr %13, align 8, !tbaa !154
  %15 = getelementptr inbounds nuw i8, ptr %4, i64 24
  %16 = load double, ptr %15, align 8, !tbaa !155
  %17 = tail call i32 (ptr, ptr, ...) @fprintf(ptr noundef %6, ptr noundef nonnull @.str.13, i64 noundef %1, i64 noundef %3, i32 noundef %9, double noundef %10, double noundef %12, double noundef %14, double noundef %16) #20
  %18 = load i8, ptr @Verbose, align 1, !tbaa !120
  %19 = icmp ult i8 %18, 2
  br i1 %19, label %.loopexit, label %20

20:                                               ; preds = %5
  %21 = load ptr, ptr @stderr, align 8, !tbaa !68
  %22 = tail call i64 @fwrite(ptr nonnull @.str.14, i64 8, i64 1, ptr %21) #23
  %.not39 = icmp eq i64 %1, 0
  br i1 %.not39, label %._crit_edge, label %.lr.ph

._crit_edge:                                      ; preds = %39, %20
  %23 = load ptr, ptr @stderr, align 8, !tbaa !68
  %24 = tail call i64 @fwrite(ptr nonnull @.str.17, i64 8, i64 1, ptr %23) #23
  br label %44

.lr.ph:                                           ; preds = %20, %39
  %.03136 = phi i64 [ %43, %39 ], [ 0, %20 ]
  %.03235 = phi ptr [ %42, %39 ], [ %0, %20 ]
  %25 = getelementptr inbounds nuw i8, ptr %.03235, i64 32
  %26 = load ptr, ptr %25, align 8, !tbaa !89
  %27 = load ptr, ptr @stderr, align 8, !tbaa !68
  %28 = load double, ptr %.03235, align 8, !tbaa !77
  %29 = getelementptr inbounds nuw i8, ptr %.03235, i64 8
  %30 = load double, ptr %29, align 8, !tbaa !78
  %31 = getelementptr inbounds nuw i8, ptr %.03235, i64 16
  %32 = load double, ptr %31, align 8, !tbaa !73
  %33 = getelementptr inbounds nuw i8, ptr %.03235, i64 24
  %34 = load double, ptr %33, align 8, !tbaa !75
  %.not = icmp eq ptr %26, null
  br i1 %.not, label %39, label %35

35:                                               ; preds = %.lr.ph
  %36 = getelementptr inbounds nuw i8, ptr %26, i64 32
  %37 = load ptr, ptr %36, align 8, !tbaa !87
  %38 = load ptr, ptr %37, align 8, !tbaa !93
  br label %39

39:                                               ; preds = %.lr.ph, %35
  %40 = phi ptr [ %38, %35 ], [ @.str.16, %.lr.ph ]
  %41 = tail call i32 (ptr, ptr, ...) @fprintf(ptr noundef %27, ptr noundef nonnull @.str.15, i64 noundef %.03136, double noundef %28, double noundef %30, double noundef %32, double noundef %34, ptr noundef %26, ptr noundef %40) #20
  %42 = getelementptr inbounds nuw i8, ptr %.03235, i64 40
  %43 = add nuw i64 %.03136, 1
  %exitcond.not = icmp eq i64 %43, %1
  br i1 %exitcond.not, label %._crit_edge, label %.lr.ph, !llvm.loop !156

44:                                               ; preds = %._crit_edge, %44
  %.038 = phi i64 [ 0, %._crit_edge ], [ %61, %44 ]
  %.03337 = phi ptr [ %2, %._crit_edge ], [ %60, %44 ]
  %45 = load ptr, ptr @stderr, align 8, !tbaa !68
  %46 = getelementptr inbounds nuw i8, ptr %.03337, i64 40
  %47 = load i8, ptr %46, align 8, !tbaa !88
  %48 = zext i8 %47 to i32
  %49 = getelementptr inbounds nuw i8, ptr %.03337, i64 16
  %50 = load double, ptr %49, align 8, !tbaa !157
  %51 = getelementptr inbounds nuw i8, ptr %.03337, i64 24
  %52 = load double, ptr %51, align 8, !tbaa !158
  %53 = load double, ptr %.03337, align 8, !tbaa !83
  %54 = getelementptr inbounds nuw i8, ptr %.03337, i64 8
  %55 = load double, ptr %54, align 8, !tbaa !86
  %56 = getelementptr inbounds nuw i8, ptr %.03337, i64 32
  %57 = load ptr, ptr %56, align 8, !tbaa !87
  %58 = load ptr, ptr %57, align 8, !tbaa !93
  %59 = tail call i32 (ptr, ptr, ...) @fprintf(ptr noundef %45, ptr noundef nonnull @.str.18, i64 noundef %.038, ptr noundef nonnull %.03337, i32 noundef %48, double noundef %50, double noundef %52, double noundef %53, double noundef %55, ptr noundef %58) #20
  %60 = getelementptr inbounds nuw i8, ptr %.03337, i64 48
  %61 = add nuw i64 %.038, 1
  %exitcond40.not = icmp eq i64 %61, %3
  br i1 %exitcond40.not, label %.loopexit, label %44, !llvm.loop !159

.loopexit:                                        ; preds = %44, %5
  ret void
}